target datalayout = "e-m:e-p270:32:32-p271:32:32-p272:64:64-i64:64-i128:128-f80:128-n8:16:32:64-S128"
target triple = "x86_64-pc-linux-gnu"

%union.Value = type { ptr }
%struct.lua_State = type { ptr, i8, i8, i8, ptr, ptr, ptr, ptr, ptr, ptr, ptr, ptr, ptr, i32, i32, i16, i16, i8, i8, i32, i32, ptr, %struct.lua_TValue, %struct.lua_TValue, ptr, ptr, ptr, i64 }
%struct.lua_TValue = type { %union.Value, i32 }
%union.anon.7 = type { double }

@.str.25 = private unnamed_addr constant [7 x i8] c"number\00", align 1

; Function Attrs: nounwind uwtable
define internal void @lua_pushnumber(ptr noundef %0, double noundef %1) #0 {
  %3 = alloca ptr, align 8
  %4 = alloca double, align 8
  %5 = alloca ptr, align 8
  store ptr %0, ptr %3, align 8, !tbaa !11
  store double %1, ptr %4, align 8, !tbaa !154
  call void @llvm.lifetime.start.p0(i64 8, ptr %5) #14
  %6 = load ptr, ptr %3, align 8, !tbaa !11
  %7 = getelementptr inbounds nuw %struct.lua_State, ptr %6, i32 0, i32 4
  %8 = load ptr, ptr %7, align 8, !tbaa !43
  store ptr %8, ptr %5, align 8, !tbaa !44
  %9 = load double, ptr %4, align 8, !tbaa !154
  %10 = load ptr, ptr %5, align 8, !tbaa !44
  %11 = getelementptr inbounds nuw %struct.lua_TValue, ptr %10, i32 0, i32 0
  store double %9, ptr %11, align 8, !tbaa !45
  %12 = load ptr, ptr %5, align 8, !tbaa !44
  %13 = getelementptr inbounds nuw %struct.lua_TValue, ptr %12, i32 0, i32 1
  store i32 3, ptr %13, align 8, !tbaa !46
  call void @llvm.lifetime.end.p0(i64 8, ptr %5) #14
  %14 = load ptr, ptr %3, align 8, !tbaa !11
  %15 = getelementptr inbounds nuw %struct.lua_State, ptr %14, i32 0, i32 4
  %16 = load ptr, ptr %15, align 8, !tbaa !43
  %17 = getelementptr inbounds nuw %struct.lua_TValue, ptr %16, i32 1
  store ptr %17, ptr %15, align 8, !tbaa !43
  ret void
}

; Function Attrs: nounwind uwtable
define internal i32 @lua_gettop(ptr noundef %0) #0 {
  %2 = alloca ptr, align 8
  store ptr %0, ptr %2, align 8, !tbaa !11
  %3 = load ptr, ptr %2, align 8, !tbaa !11
  %4 = getelementptr inbounds nuw %struct.lua_State, ptr %3, i32 0, i32 4
  %5 = load ptr, ptr %4, align 8, !tbaa !43
  %6 = load ptr, ptr %2, align 8, !tbaa !11
  %7 = getelementptr inbounds nuw %struct.lua_State, ptr %6, i32 0, i32 5
  %8 = load ptr, ptr %7, align 8, !tbaa !67
  %9 = ptrtoint ptr %5 to i64
  %10 = ptrtoint ptr %8 to i64
  %11 = sub i64 %9, %10
  %12 = sdiv exact i64 %11, 16
  %13 = trunc i64 %12 to i32
  ret i32 %13
}

; Function Attrs: nounwind uwtable
define internal i32 @barg(ptr noundef %0, i32 noundef %1) #0 {
  %3 = alloca ptr, align 8
  %4 = alloca i32, align 4
  %5 = alloca %union.anon.7, align 8
  store ptr %0, ptr %3, align 8, !tbaa !11
  store i32 %1, ptr %4, align 4, !tbaa !4
  call void @llvm.lifetime.start.p0(i64 8, ptr %5) #14
  %6 = load ptr, ptr %3, align 8, !tbaa !11
  %7 = load i32, ptr %4, align 4, !tbaa !4
  %8 = call double @lua_tonumber(ptr noundef %6, i32 noundef %7)
  %9 = fadd double %8, 0x4338000000000000
  store double %9, ptr %5, align 8, !tbaa !45
  %10 = load double, ptr %5, align 8, !tbaa !45
  %11 = fcmp oeq double %10, 0.000000e+00
  br i1 %11, label %12, label %21

12:                                               ; preds = %2
  %13 = load ptr, ptr %3, align 8, !tbaa !11
  %14 = load i32, ptr %4, align 4, !tbaa !4
  %15 = call i32 @lua_isnumber(ptr noundef %13, i32 noundef %14)
  %16 = icmp ne i32 %15, 0
  br i1 %16, label %21, label %17

17:                                               ; preds = %12
  %18 = load ptr, ptr %3, align 8, !tbaa !11
  %19 = load i32, ptr %4, align 4, !tbaa !4
  %20 = call i32 @luaL_typerror(ptr noundef %18, i32 noundef %19, ptr noundef @.str.25)
  br label %21

21:                                               ; preds = %17, %12, %2
  %22 = load i64, ptr %5, align 8, !tbaa !45
  %23 = trunc i64 %22 to i32
  call void @llvm.lifetime.end.p0(i64 8, ptr %5) #14
  ret i32 %23
}

; Function Attrs: nounwind uwtable
define internal i32 @bxor(ptr noundef %0) #0 {
  %2 = alloca ptr, align 8
  %3 = alloca i32, align 4
  %4 = alloca i32, align 4
  store ptr %0, ptr %2, align 8, !tbaa !11
  call void @llvm.lifetime.start.p0(i64 4, ptr %3) #14
  call void @llvm.lifetime.start.p0(i64 4, ptr %4) #14
  %5 = load ptr, ptr %2, align 8, !tbaa !11
  %6 = call i32 @barg(ptr noundef %5, i32 noundef 1)
  store i32 %6, ptr %4, align 4, !tbaa !4
  %7 = load ptr, ptr %2, align 8, !tbaa !11
  %8 = call i32 @lua_gettop(ptr noundef %7)
  store i32 %8, ptr %3, align 4, !tbaa !4
  br label %9

9:                                                ; preds = %18, %1
  %10 = load i32, ptr %3, align 4, !tbaa !4
  %11 = icmp sgt i32 %10, 1
  br i1 %11, label %12, label %21

12:                                               ; preds = %9
  %13 = load ptr, ptr %2, align 8, !tbaa !11
  %14 = load i32, ptr %3, align 4, !tbaa !4
  %15 = call i32 @barg(ptr noundef %13, i32 noundef %14)
  %16 = load i32, ptr %4, align 4, !tbaa !4
  %17 = xor i32 %16, %15
  store i32 %17, ptr %4, align 4, !tbaa !4
  br label %18

18:                                               ; preds = %12
  %19 = load i32, ptr %3, align 4, !tbaa !4
  %20 = add nsw i32 %19, -1
  store i32 %20, ptr %3, align 4, !tbaa !4
  br label %9, !llvm.loop !482

21:                                               ; preds = %9
  %22 = load ptr, ptr %2, align 8, !tbaa !11
  %23 = load i32, ptr %4, align 4, !tbaa !4
  %24 = sitofp i32 %23 to double
  call void @lua_pushnumber(ptr noundef %22, double noundef %24)
  call void @llvm.lifetime.end.p0(i64 4, ptr %4) #14
  call void @llvm.lifetime.end.p0(i64 4, ptr %3) #14
  ret i32 1
}